target datalayout = "e-m:e-p270:32:32-p271:32:32-p272:64:64-i64:64-i128:128-f80:128-n8:16:32:64-S128"
target triple = "x86_64-pc-linux-gnu"

%struct.AVFormatContext = type { ptr, ptr, ptr, ptr, ptr, i32, i32, ptr, i32, ptr, i32, ptr, ptr, i64, i64, i64, i32, i32, i32, i64, i64, ptr, i32, i32, ptr, i32, i32, i32, i32, ptr, i64, i32, i32, %struct.AVIOInterruptCB, i32, i32, i32, i32, i64, i32, i32, i32, i32, i32, i32, i32, i32, i32, i32, i32, i32, i64, i32, i32, i32, i32, i32, ptr, ptr, ptr, ptr, i32, ptr, ptr, ptr, ptr, i32, ptr, ptr, i64, ptr, ptr, ptr, i64 }
%struct.AVIOInterruptCB = type { ptr, ptr }
%struct.AVPacket = type { ptr, i64, i64, ptr, i32, i32, i32, ptr, i32, i64, i64, ptr, ptr, %struct.AVRational }
%struct.AVRational = type { i32, i32 }
%struct.AVStream = type { ptr, i32, i32, ptr, ptr, %struct.AVRational, i64, i64, i64, i32, i32, %struct.AVRational, ptr, %struct.AVRational, %struct.AVPacket, i32, %struct.AVRational, i32 }
%struct.MXFContext = type { ptr, i64, i32, %struct.AVRational, i32, ptr, i32, i64, i8, i32, ptr, i32, i32, i64, %struct.AVTimecode, ptr, i32, i32, i32, i64, i32, [16 x i8], i32, i32, i32, %struct.AVRational, i32, i32, i32, [127 x i8], %struct.MXFStreamContext }
%struct.AVTimecode = type { i32, i32, %struct.AVRational, i32 }
%struct.MXFStreamContext = type { i64, [16 x i8], i32, ptr, ptr, i32, i32, i32, i32, i32, i32, i32, i32, i32, %struct.AVRational, i32, i32, i32, i32, i32, i32, i32, i32, i32, i32, %struct.j2k_info_t }
%struct.j2k_info_t = type { i16, i16, i32, i32, i32, i32, i32, i32, i32, i32, [12 x i8] }
%struct.AVCodecParameters = type { i32, i32, i32, ptr, i32, ptr, i32, i32, i64, i32, i32, i32, i32, i32, i32, %struct.AVRational, %struct.AVRational, i32, i32, i32, i32, i32, i32, i32, %struct.AVChannelLayout, i32, i32, i32, i32, i32, i32 }
%struct.AVChannelLayout = type { i32, i32, %union.anon.0, ptr }
%union.anon.0 = type { i64 }

@uuid_base = internal constant [10 x i8] c"\AD\ABD$/%M\C7\92\FF", align 1

; Function Attrs: nounwind uwtable
define internal void @mxf_write_uuid(ptr noundef %0, i32 noundef %1, i32 noundef %2) #0 {
  %4 = alloca ptr, align 8
  %5 = alloca i32, align 4
  %6 = alloca i32, align 4
  store ptr %0, ptr %4, align 8, !tbaa !31
  store i32 %1, ptr %5, align 4, !tbaa !57
  store i32 %2, ptr %6, align 4, !tbaa !57
  %7 = load ptr, ptr %4, align 8, !tbaa !31
  call void @avio_write(ptr noundef %7, ptr noundef @uuid_base, i32 noundef 10)
  %8 = load ptr, ptr %4, align 8, !tbaa !31
  %9 = load i32, ptr %5, align 4, !tbaa !57
  call void @avio_wb16(ptr noundef %8, i32 noundef %9)
  %10 = load ptr, ptr %4, align 8, !tbaa !31
  %11 = load i32, ptr %6, align 4, !tbaa !57
  call void @avio_wb32(ptr noundef %10, i32 noundef %11)
  ret void
}

; Function Attrs: alwaysinline nounwind uwtable
define internal i64 @avio_tell(ptr noundef %0) #8 {
  %2 = alloca ptr, align 8
  store ptr %0, ptr %2, align 8, !tbaa !31
  %3 = load ptr, ptr %2, align 8, !tbaa !31
  %4 = call i64 @avio_seek(ptr noundef %3, i64 noundef 0, i32 noundef 1)
  ret i64 %4
}

; Function Attrs: nounwind uwtable
define internal void @klv_encode_ber4_length(ptr noundef %0, i32 noundef %1) #0 {
  %3 = alloca ptr, align 8
  %4 = alloca i32, align 4
  store ptr %0, ptr %3, align 8, !tbaa !31
  store i32 %1, ptr %4, align 4, !tbaa !57
  %5 = load ptr, ptr %3, align 8, !tbaa !31
  call void @avio_w8(ptr noundef %5, i32 noundef 131)
  %6 = load ptr, ptr %3, align 8, !tbaa !31
  %7 = load i32, ptr %4, align 4, !tbaa !57
  call void @avio_wb24(ptr noundef %6, i32 noundef %7)
  ret void
}

; Function Attrs: nounwind uwtable
define internal i64 @mxf_write_generic_desc(ptr noundef %0, ptr noundef %1, ptr noundef %2) #0 {
  %4 = alloca ptr, align 8
  %5 = alloca ptr, align 8
  %6 = alloca ptr, align 8
  %7 = alloca ptr, align 8
  %8 = alloca ptr, align 8
  %9 = alloca ptr, align 8
  %10 = alloca i64, align 8
  store ptr %0, ptr %4, align 8, !tbaa !4
  store ptr %1, ptr %5, align 8, !tbaa !38
  store ptr %2, ptr %6, align 8, !tbaa !151
  call void @llvm.lifetime.start.p0(i64 8, ptr %7) #13
  %11 = load ptr, ptr %4, align 8, !tbaa !4
  %12 = getelementptr inbounds nuw %struct.AVFormatContext, ptr %11, i32 0, i32 3
  %13 = load ptr, ptr %12, align 8, !tbaa !11
  store ptr %13, ptr %7, align 8, !tbaa !28
  call void @llvm.lifetime.start.p0(i64 8, ptr %8) #13
  %14 = load ptr, ptr %5, align 8, !tbaa !38
  %15 = getelementptr inbounds nuw %struct.AVStream, ptr %14, i32 0, i32 4
  %16 = load ptr, ptr %15, align 8, !tbaa !40
  store ptr %16, ptr %8, align 8, !tbaa !43
  call void @llvm.lifetime.start.p0(i64 8, ptr %9) #13
  %17 = load ptr, ptr %4, align 8, !tbaa !4
  %18 = getelementptr inbounds nuw %struct.AVFormatContext, ptr %17, i32 0, i32 4
  %19 = load ptr, ptr %18, align 8, !tbaa !30
  store ptr %19, ptr %9, align 8, !tbaa !31
  call void @llvm.lifetime.start.p0(i64 8, ptr %10) #13
  %20 = load ptr, ptr %9, align 8, !tbaa !31
  %21 = load ptr, ptr %6, align 8, !tbaa !151
  call void @avio_write(ptr noundef %20, ptr noundef %21, i32 noundef 16)
  %22 = load ptr, ptr %9, align 8, !tbaa !31
  call void @klv_encode_ber4_length(ptr noundef %22, i32 noundef 0)
  %23 = load ptr, ptr %9, align 8, !tbaa !31
  %24 = call i64 @avio_tell(ptr noundef %23)
  store i64 %24, ptr %10, align 8, !tbaa !80
  %25 = load ptr, ptr %4, align 8, !tbaa !4
  call void @mxf_write_local_tag(ptr noundef %25, i32 noundef 16, i32 noundef 15370)
  %26 = load ptr, ptr %9, align 8, !tbaa !31
  %27 = load ptr, ptr %5, align 8, !tbaa !38
  %28 = getelementptr inbounds nuw %struct.AVStream, ptr %27, i32 0, i32 1
  %29 = load i32, ptr %28, align 8, !tbaa !65
  call void @mxf_write_uuid(ptr noundef %26, i32 noundef 14, i32 noundef %29)
  %30 = load ptr, ptr %4, align 8, !tbaa !4
  call void @mxf_write_local_tag(ptr noundef %30, i32 noundef 4, i32 noundef 12294)
  %31 = load ptr, ptr %9, align 8, !tbaa !31
  %32 = load ptr, ptr %5, align 8, !tbaa !38
  %33 = getelementptr inbounds nuw %struct.AVStream, ptr %32, i32 0, i32 1
  %34 = load i32, ptr %33, align 8, !tbaa !65
  %35 = add nsw i32 %34, 2
  call void @avio_wb32(ptr noundef %31, i32 noundef %35)
  %36 = load ptr, ptr %4, align 8, !tbaa !4
  call void @mxf_write_local_tag(ptr noundef %36, i32 noundef 8, i32 noundef 12289)
  %37 = load ptr, ptr %4, align 8, !tbaa !4
  %38 = getelementptr inbounds nuw %struct.AVFormatContext, ptr %37, i32 0, i32 2
  %39 = load ptr, ptr %38, align 8, !tbaa !53
  %40 = icmp eq ptr %39, @ff_mxf_d10_muxer
  br i1 %40, label %41, label %52

41:                                               ; preds = %3
  %42 = load ptr, ptr %9, align 8, !tbaa !31
  %43 = load ptr, ptr %7, align 8, !tbaa !28
  %44 = getelementptr inbounds nuw %struct.MXFContext, ptr %43, i32 0, i32 3
  %45 = getelementptr inbounds nuw %struct.AVRational, ptr %44, i32 0, i32 1
  %46 = load i32, ptr %45, align 4, !tbaa !114
  call void @avio_wb32(ptr noundef %42, i32 noundef %46)
  %47 = load ptr, ptr %9, align 8, !tbaa !31
  %48 = load ptr, ptr %7, align 8, !tbaa !28
  %49 = getelementptr inbounds nuw %struct.MXFContext, ptr %48, i32 0, i32 3
  %50 = getelementptr inbounds nuw %struct.AVRational, ptr %49, i32 0, i32 0
  %51 = load i32, ptr %50, align 4, !tbaa !113
  call void @avio_wb32(ptr noundef %47, i32 noundef %51)
  br label %86

52:                                               ; preds = %3
  %53 = load ptr, ptr %5, align 8, !tbaa !38
  %54 = getelementptr inbounds nuw %struct.AVStream, ptr %53, i32 0, i32 3
  %55 = load ptr, ptr %54, align 8, !tbaa !58
  %56 = getelementptr inbounds nuw %struct.AVCodecParameters, ptr %55, i32 0, i32 1
  %57 = load i32, ptr %56, align 4, !tbaa !59
  %58 = icmp eq i32 %57, 65536
  br i1 %58, label %66, label %59

59:                                               ; preds = %52
  %60 = load ptr, ptr %5, align 8, !tbaa !38
  %61 = getelementptr inbounds nuw %struct.AVStream, ptr %60, i32 0, i32 3
  %62 = load ptr, ptr %61, align 8, !tbaa !58
  %63 = getelementptr inbounds nuw %struct.AVCodecParameters, ptr %62, i32 0, i32 1
  %64 = load i32, ptr %63, align 4, !tbaa !59
  %65 = icmp eq i32 %64, 65548
  br i1 %65, label %66, label %74

66:                                               ; preds = %59, %52
  %67 = load ptr, ptr %9, align 8, !tbaa !31
  %68 = load ptr, ptr %5, align 8, !tbaa !38
  %69 = getelementptr inbounds nuw %struct.AVStream, ptr %68, i32 0, i32 3
  %70 = load ptr, ptr %69, align 8, !tbaa !58
  %71 = getelementptr inbounds nuw %struct.AVCodecParameters, ptr %70, i32 0, i32 25
  %72 = load i32, ptr %71, align 8, !tbaa !122
  call void @avio_wb32(ptr noundef %67, i32 noundef %72)
  %73 = load ptr, ptr %9, align 8, !tbaa !31
  call void @avio_wb32(ptr noundef %73, i32 noundef 1)
  br label %85

74:                                               ; preds = %59
  %75 = load ptr, ptr %9, align 8, !tbaa !31
  %76 = load ptr, ptr %7, align 8, !tbaa !28
  %77 = getelementptr inbounds nuw %struct.MXFContext, ptr %76, i32 0, i32 3
  %78 = getelementptr inbounds nuw %struct.AVRational, ptr %77, i32 0, i32 1
  %79 = load i32, ptr %78, align 4, !tbaa !114
  call void @avio_wb32(ptr noundef %75, i32 noundef %79)
  %80 = load ptr, ptr %9, align 8, !tbaa !31
  %81 = load ptr, ptr %7, align 8, !tbaa !28
  %82 = getelementptr inbounds nuw %struct.MXFContext, ptr %81, i32 0, i32 3
  %83 = getelementptr inbounds nuw %struct.AVRational, ptr %82, i32 0, i32 0
  %84 = load i32, ptr %83, align 4, !tbaa !113
  call void @avio_wb32(ptr noundef %80, i32 noundef %84)
  br label %85

85:                                               ; preds = %74, %66
  br label %86

86:                                               ; preds = %85, %41
  %87 = load ptr, ptr %4, align 8, !tbaa !4
  call void @mxf_write_local_tag(ptr noundef %87, i32 noundef 16, i32 noundef 12292)
  %88 = load ptr, ptr %9, align 8, !tbaa !31
  %89 = load ptr, ptr %8, align 8, !tbaa !43
  %90 = getelementptr inbounds nuw %struct.MXFStreamContext, ptr %89, i32 0, i32 4
  %91 = load ptr, ptr %90, align 8, !tbaa !119
  %92 = getelementptr inbounds [16 x i8], ptr %91, i64 0, i64 0
  call void @avio_write(ptr noundef %88, ptr noundef %92, i32 noundef 16)
  %93 = load i64, ptr %10, align 8, !tbaa !80
  call void @llvm.lifetime.end.p0(i64 8, ptr %10) #13
  call void @llvm.lifetime.end.p0(i64 8, ptr %9) #13
  call void @llvm.lifetime.end.p0(i64 8, ptr %8) #13
  call void @llvm.lifetime.end.p0(i64 8, ptr %7) #13
  ret i64 %93
}