; Function Attrs: nounwind uwtable
define internal fastcc i64 @mxf_write_generic_desc(ptr noundef readonly captures(none) %0, ptr noundef readonly captures(none) %1, ptr noundef %2) unnamed_addr #0 {
  %4 = getelementptr inbounds nuw i8, ptr %0, i64 24
  %5 = load ptr, ptr %4, align 8, !tbaa !4
  %6 = getelementptr inbounds nuw i8, ptr %1, i64 24
  %7 = load ptr, ptr %6, align 8, !tbaa !33
  %8 = getelementptr inbounds nuw i8, ptr %0, i64 32
  %9 = load ptr, ptr %8, align 8, !tbaa !24
  tail call void @avio_write(ptr noundef %9, ptr noundef %2, i32 noundef 16) #14
  tail call void @avio_w8(ptr noundef %9, i32 noundef 131) #14
  tail call void @avio_wb24(ptr noundef %9, i32 noundef 0) #14
  %10 = tail call i64 @avio_seek(ptr noundef %9, i64 noundef 0, i32 noundef 1) #14
  %.val36 = load ptr, ptr %4, align 8, !tbaa !4
  %.val37 = load ptr, ptr %8, align 8, !tbaa !24
  tail call fastcc void @mxf_write_local_tag(ptr %.val36, ptr %.val37, i32 noundef 16, i32 noundef 15370)
  %11 = getelementptr inbounds nuw i8, ptr %1, i64 8
  %12 = load i32, ptr %11, align 8, !tbaa !120
  tail call void @avio_write(ptr noundef %9, ptr noundef nonnull @uuid_base, i32 noundef 10) #14
  tail call void @avio_wb16(ptr noundef %9, i32 noundef 14) #14
  tail call void @avio_wb32(ptr noundef %9, i32 noundef %12) #14
  %.val34 = load ptr, ptr %4, align 8, !tbaa !4
  %.val35 = load ptr, ptr %8, align 8, !tbaa !24
  tail call fastcc void @mxf_write_local_tag(ptr %.val34, ptr %.val35, i32 noundef 4, i32 noundef 12294)
  %13 = load i32, ptr %11, align 8, !tbaa !120
  %14 = add nsw i32 %13, 2
  tail call void @avio_wb32(ptr noundef %9, i32 noundef %14) #14
  %.val32 = load ptr, ptr %4, align 8, !tbaa !4
  %.val33 = load ptr, ptr %8, align 8, !tbaa !24
  tail call fastcc void @mxf_write_local_tag(ptr %.val32, ptr %.val33, i32 noundef 8, i32 noundef 12289)
  %15 = getelementptr inbounds nuw i8, ptr %0, i64 16
  %16 = load ptr, ptr %15, align 8, !tbaa !44
  %17 = icmp eq ptr %16, @ff_mxf_d10_muxer
  br i1 %17, label %18, label %23

18:                                               ; preds = %3
  %19 = getelementptr inbounds nuw i8, ptr %5, i64 20
  %20 = getelementptr inbounds nuw i8, ptr %5, i64 24
  %21 = load i32, ptr %20, align 4, !tbaa !195
  tail call void @avio_wb32(ptr noundef %9, i32 noundef %21) #14
  %22 = load i32, ptr %19, align 4, !tbaa !197
  br label %36

23:                                               ; preds = %3
  %24 = getelementptr inbounds nuw i8, ptr %1, i64 16
  %25 = load ptr, ptr %24, align 8, !tbaa !48
  %26 = getelementptr inbounds nuw i8, ptr %25, i64 4
  %27 = load i32, ptr %26, align 4, !tbaa !49
  switch i32 %27, label %31 [
    i32 65536, label %28
    i32 65548, label %28
  ]

28:                                               ; preds = %23, %23
  %29 = getelementptr inbounds nuw i8, ptr %25, i64 152
  %30 = load i32, ptr %29, align 8, !tbaa !199
  tail call void @avio_wb32(ptr noundef %9, i32 noundef %30) #14
  br label %36

31:                                               ; preds = %23
  %32 = getelementptr inbounds nuw i8, ptr %5, i64 20
  %33 = getelementptr inbounds nuw i8, ptr %5, i64 24
  %34 = load i32, ptr %33, align 4, !tbaa !195
  tail call void @avio_wb32(ptr noundef %9, i32 noundef %34) #14
  %35 = load i32, ptr %32, align 4, !tbaa !197
  br label %36

36:                                               ; preds = %28, %31, %18
  %.sink = phi i32 [ 1, %28 ], [ %35, %31 ], [ %22, %18 ]
  tail call void @avio_wb32(ptr noundef %9, i32 noundef %.sink) #14
  %.val = load ptr, ptr %4, align 8, !tbaa !4
  %.val31 = load ptr, ptr %8, align 8, !tbaa !24
  tail call fastcc void @mxf_write_local_tag(ptr %.val, ptr %.val31, i32 noundef 16, i32 noundef 12292)
  %37 = getelementptr inbounds nuw i8, ptr %7, i64 40
  %38 = load ptr, ptr %37, align 8, !tbaa !78
  tail call void @avio_write(ptr noundef %9, ptr noundef %38, i32 noundef 16) #14
  ret i64 %10
}